target datalayout = "e-m:e-p270:32:32-p271:32:32-p272:64:64-i64:64-i128:128-f80:128-n8:16:32:64-S128"
target triple = "x86_64-pc-linux-gnu"

%struct.yyguts_t = type { ptr, ptr, ptr, i64, i64, ptr, i8, i32, i32, ptr, i32, i32, i32, i32, i32, ptr, i32, ptr, i32, i32, ptr, i32, i32 }

; Function Attrs: nounwind null_pointer_is_valid sspstrong uwtable
define internal i32 @yy_init_globals(ptr noundef %0) #2 {
  %2 = alloca ptr, align 8
  %3 = alloca ptr, align 8
  store ptr %0, ptr %2, align 8
  call void @llvm.lifetime.start.p0(i64 8, ptr %3) #17
  %4 = load ptr, ptr %2, align 8
  store ptr %4, ptr %3, align 8
  %5 = load ptr, ptr %3, align 8
  %6 = getelementptr inbounds nuw %struct.yyguts_t, ptr %5, i32 0, i32 5
  store ptr null, ptr %6, align 8
  %7 = load ptr, ptr %3, align 8
  %8 = getelementptr inbounds nuw %struct.yyguts_t, ptr %7, i32 0, i32 3
  store i64 0, ptr %8, align 8
  %9 = load ptr, ptr %3, align 8
  %10 = getelementptr inbounds nuw %struct.yyguts_t, ptr %9, i32 0, i32 4
  store i64 0, ptr %10, align 8
  %11 = load ptr, ptr %3, align 8
  %12 = getelementptr inbounds nuw %struct.yyguts_t, ptr %11, i32 0, i32 9
  store ptr null, ptr %12, align 8
  %13 = load ptr, ptr %3, align 8
  %14 = getelementptr inbounds nuw %struct.yyguts_t, ptr %13, i32 0, i32 10
  store i32 0, ptr %14, align 8
  %15 = load ptr, ptr %3, align 8
  %16 = getelementptr inbounds nuw %struct.yyguts_t, ptr %15, i32 0, i32 11
  store i32 0, ptr %16, align 4
  %17 = load ptr, ptr %3, align 8
  %18 = getelementptr inbounds nuw %struct.yyguts_t, ptr %17, i32 0, i32 13
  store i32 0, ptr %18, align 4
  %19 = load ptr, ptr %3, align 8
  %20 = getelementptr inbounds nuw %struct.yyguts_t, ptr %19, i32 0, i32 14
  store i32 0, ptr %20, align 8
  %21 = load ptr, ptr %3, align 8
  %22 = getelementptr inbounds nuw %struct.yyguts_t, ptr %21, i32 0, i32 15
  store ptr null, ptr %22, align 8
  %23 = load ptr, ptr %3, align 8
  %24 = getelementptr inbounds nuw %struct.yyguts_t, ptr %23, i32 0, i32 1
  store ptr null, ptr %24, align 8
  %25 = load ptr, ptr %3, align 8
  %26 = getelementptr inbounds nuw %struct.yyguts_t, ptr %25, i32 0, i32 2
  store ptr null, ptr %26, align 8
  call void @llvm.lifetime.end.p0(i64 8, ptr %3) #17
  ret i32 0
}

; Function Attrs: alwaysinline nounwind
define internal ptr @memset.inline(ptr %0, i32 %1, i64 %2) #5 {
  %4 = alloca ptr, align 8
  %5 = alloca i32, align 4
  %6 = alloca i64, align 8
  store ptr %0, ptr %4, align 8
  store i32 %1, ptr %5, align 4
  store i64 %2, ptr %6, align 8
  %7 = load ptr, ptr %4, align 8
  %8 = load i32, ptr %5, align 4
  %9 = load i64, ptr %6, align 8
  %10 = load ptr, ptr %4, align 8
  %11 = call i64 @llvm.objectsize.i64.p0(ptr %10, i1 false, i1 true, i1 true)
  %12 = call ptr @__memset_chk(ptr noundef %7, i32 noundef %8, i64 noundef %9, i64 noundef %11) #17
  ret ptr %12
}

; Function Attrs: nounwind null_pointer_is_valid sspstrong uwtable
define hidden void @uat_load_set_extra(ptr noundef %0, ptr noundef %1) #2 {
  %3 = alloca ptr, align 8
  %4 = alloca ptr, align 8
  %5 = alloca ptr, align 8
  store ptr %0, ptr %3, align 8
  store ptr %1, ptr %4, align 8
  call void @llvm.lifetime.start.p0(i64 8, ptr %5) #17
  %6 = load ptr, ptr %4, align 8
  store ptr %6, ptr %5, align 8
  %7 = load ptr, ptr %3, align 8
  %8 = load ptr, ptr %5, align 8
  %9 = getelementptr inbounds nuw %struct.yyguts_t, ptr %8, i32 0, i32 0
  store ptr %7, ptr %9, align 8
  call void @llvm.lifetime.end.p0(i64 8, ptr %5) #17
  ret void
}

; Function Attrs: null_pointer_is_valid sspstrong uwtable
define hidden i32 @uat_load_lex_init_extra(ptr noundef %0, ptr noundef %1) #0 {
  %3 = alloca i32, align 4
  %4 = alloca ptr, align 8
  %5 = alloca ptr, align 8
  %6 = alloca %struct.yyguts_t, align 8
  %7 = alloca i32, align 4
  store ptr %0, ptr %4, align 8
  store ptr %1, ptr %5, align 8
  call void @llvm.lifetime.start.p0(i64 144, ptr %6) #17
  %8 = load ptr, ptr %4, align 8
  call void @uat_load_set_extra(ptr noundef %8, ptr noundef %6)
  %9 = load ptr, ptr %5, align 8
  %10 = icmp eq ptr %9, null
  br i1 %10, label %11, label %13

11:                                               ; preds = %2
  %12 = call ptr @__errno_location() #22
  store i32 22, ptr %12, align 4
  store i32 1, ptr %3, align 4
  store i32 1, ptr %7, align 4
  br label %31

13:                                               ; preds = %2
  %14 = call noalias ptr @malloc(i64 noundef 144) #20
  %15 = load ptr, ptr %5, align 8
  store ptr %14, ptr %15, align 8
  %16 = load ptr, ptr %5, align 8
  %17 = load ptr, ptr %16, align 8
  %18 = icmp eq ptr %17, null
  br i1 %18, label %19, label %21

19:                                               ; preds = %13
  %20 = call ptr @__errno_location() #22
  store i32 12, ptr %20, align 4
  store i32 1, ptr %3, align 4
  store i32 1, ptr %7, align 4
  br label %31

21:                                               ; preds = %13
  %22 = load ptr, ptr %5, align 8
  %23 = load ptr, ptr %22, align 8
  %24 = call ptr @memset.inline(ptr noundef %23, i32 noundef 0, i64 noundef 144) #17
  %25 = load ptr, ptr %4, align 8
  %26 = load ptr, ptr %5, align 8
  %27 = load ptr, ptr %26, align 8
  call void @uat_load_set_extra(ptr noundef %25, ptr noundef %27)
  %28 = load ptr, ptr %5, align 8
  %29 = load ptr, ptr %28, align 8
  %30 = call i32 @yy_init_globals(ptr noundef %29)
  store i32 %30, ptr %3, align 4
  store i32 1, ptr %7, align 4
  br label %31

31:                                               ; preds = %21, %19, %11
  call void @llvm.lifetime.end.p0(i64 144, ptr %6) #17
  %32 = load i32, ptr %3, align 4
  ret i32 %32
}